target datalayout = "e-m:e-p270:32:32-p271:32:32-p272:64:64-i64:64-i128:128-f80:128-n8:16:32:64-S128"
target triple = "x86_64-pc-linux-gnu"

%struct._asn1_ctx_t = type { i32, i32, i8, ptr, ptr, ptr, ptr, ptr, %struct.anon, %struct.anon.3, %struct.anon.4, ptr }
%struct.anon = type { i32, i8, i8, i8, ptr, ptr, i32, i32, ptr, ptr, ptr, %union.anon.0 }
%union.anon.0 = type { %struct.anon.1 }
%struct.anon.1 = type { ptr }
%struct.anon.3 = type { ptr, ptr, ptr }
%struct.anon.4 = type { i32, i8, ptr, i32, i32, ptr, ptr, ptr, %union.anon.5 }
%union.anon.5 = type { %struct.anon.6 }
%struct.anon.6 = type { ptr }
%struct._packet_info = type { ptr, ptr, i32, i32, %struct.nstime_t, %struct.nstime_t, %struct.nstime_t, i8, ptr, ptr, ptr, ptr, %struct._address, %struct._address, %struct._address, %struct._address, %struct._address, %struct._address, i32, ptr, i8, [3 x i8], %struct.anon.8, i32, i32, i32, i32, ptr, i8, ptr, ptr, i16, i16, i32, i32, i16, i32, i32, ptr, ptr, ptr, i8, i8, i16, i16, i16, i32, i16, i16, ptr, ptr, ptr, ptr, ptr, i32, i32 }
%struct.nstime_t = type { i64, i32 }
%struct._address = type { i32, i32, ptr, ptr }
%struct.anon.8 = type { i8, [3 x i8] }
%struct.z3950_diaginfo_t = type { i32, i32 }

@proto_z3950 = internal global i32 0, align 4
@.str.1923 = private unnamed_addr constant [18 x i8] c"1.2.840.10003.4.1\00", align 1

; Function Attrs: null_pointer_is_valid sspstrong uwtable
define internal i32 @dissect_z3950_T_diagnosticSetId(i1 noundef zeroext %0, ptr noundef %1, i32 noundef %2, ptr noundef %3, ptr noundef %4, i32 noundef %5) #0 {
  %7 = alloca i8, align 1
  %8 = alloca ptr, align 8
  %9 = alloca i32, align 4
  %10 = alloca ptr, align 8
  %11 = alloca ptr, align 8
  %12 = alloca i32, align 4
  %13 = alloca ptr, align 8
  %14 = alloca ptr, align 8
  %15 = alloca i32, align 4
  %16 = alloca ptr, align 8
  %17 = alloca i32, align 4
  %18 = alloca ptr, align 8
  %19 = zext i1 %0 to i8
  store i8 %19, ptr %7, align 1
  store ptr %1, ptr %8, align 8
  store i32 %2, ptr %9, align 4
  store ptr %3, ptr %10, align 8
  store ptr %4, ptr %11, align 8
  store i32 %5, ptr %12, align 4
  call void @llvm.lifetime.start.p0(i64 8, ptr %13) #8
  store ptr null, ptr %13, align 8
  %20 = load i8, ptr %7, align 1, !range !6, !noundef !7
  %21 = trunc i8 %20 to i1
  %22 = load ptr, ptr %10, align 8
  %23 = load ptr, ptr %11, align 8
  %24 = load ptr, ptr %8, align 8
  %25 = load i32, ptr %9, align 4
  %26 = load i32, ptr %12, align 4
  %27 = call i32 @dissect_ber_object_identifier(i1 noundef zeroext %21, ptr noundef %22, ptr noundef %23, ptr noundef %24, i32 noundef %25, i32 noundef %26, ptr noundef %13)
  store i32 %27, ptr %9, align 4
  %28 = load ptr, ptr %13, align 8
  %29 = icmp ne ptr %28, null
  br i1 %29, label %30, label %75

30:                                               ; preds = %6
  call void @llvm.lifetime.start.p0(i64 8, ptr %14) #8
  %31 = load ptr, ptr %10, align 8
  %32 = getelementptr inbounds nuw %struct._asn1_ctx_t, ptr %31, i32 0, i32 3
  %33 = load ptr, ptr %32, align 8
  store ptr %33, ptr %14, align 8
  call void @llvm.lifetime.start.p0(i64 4, ptr %15) #8
  %34 = load ptr, ptr %13, align 8
  %35 = call i32 @tvb_reported_length_remaining(ptr noundef %34, i32 noundef 0)
  store i32 %35, ptr %15, align 4
  call void @llvm.lifetime.start.p0(i64 8, ptr %16) #8
  %36 = load ptr, ptr %14, align 8
  %37 = getelementptr inbounds nuw %struct._packet_info, ptr %36, i32 0, i32 51
  %38 = load ptr, ptr %37, align 8
  %39 = load ptr, ptr %13, align 8
  %40 = load i32, ptr %15, align 4
  %41 = call ptr @tvb_get_ptr(ptr noundef %39, i32 noundef 0, i32 noundef %40)
  %42 = load i32, ptr %15, align 4
  %43 = call ptr @oid_encoded2string(ptr noundef %38, ptr noundef %41, i32 noundef %42)
  store ptr %43, ptr %16, align 8
  call void @llvm.lifetime.start.p0(i64 4, ptr %17) #8
  store i32 0, ptr %17, align 4
  call void @llvm.lifetime.start.p0(i64 8, ptr %18) #8
  %44 = load ptr, ptr %16, align 8
  %45 = call i32 @g_strcmp0(ptr noundef %44, ptr noundef @.str.1923)
  %46 = icmp eq i32 %45, 0
  br i1 %46, label %47, label %48

47:                                               ; preds = %30
  store i32 1, ptr %17, align 4
  br label %48

48:                                               ; preds = %47, %30
  %49 = load ptr, ptr %14, align 8
  %50 = getelementptr inbounds nuw %struct._packet_info, ptr %49, i32 0, i32 51
  %51 = load ptr, ptr %50, align 8
  %52 = load ptr, ptr %14, align 8
  %53 = load i32, ptr @proto_z3950, align 4
  %54 = call ptr @p_get_proto_data(ptr noundef %51, ptr noundef %52, i32 noundef %53, i32 noundef 2)
  store ptr %54, ptr %18, align 8
  %55 = icmp eq ptr %54, null
  br i1 %55, label %56, label %70

56:                                               ; preds = %48
  %57 = load ptr, ptr %14, align 8
  %58 = getelementptr inbounds nuw %struct._packet_info, ptr %57, i32 0, i32 51
  %59 = load ptr, ptr %58, align 8
  %60 = call noalias ptr @wmem_alloc0(ptr noundef %59, i64 noundef 8) #9
  store ptr %60, ptr %18, align 8
  %61 = load i32, ptr %17, align 4
  %62 = load ptr, ptr %18, align 8
  %63 = getelementptr inbounds nuw %struct.z3950_diaginfo_t, ptr %62, i32 0, i32 0
  store i32 %61, ptr %63, align 4
  %64 = load ptr, ptr %14, align 8
  %65 = getelementptr inbounds nuw %struct._packet_info, ptr %64, i32 0, i32 51
  %66 = load ptr, ptr %65, align 8
  %67 = load ptr, ptr %14, align 8
  %68 = load i32, ptr @proto_z3950, align 4
  %69 = load ptr, ptr %18, align 8
  call void @p_add_proto_data(ptr noundef %66, ptr noundef %67, i32 noundef %68, i32 noundef 2, ptr noundef %69)
  br label %74

70:                                               ; preds = %48
  %71 = load i32, ptr %17, align 4
  %72 = load ptr, ptr %18, align 8
  %73 = getelementptr inbounds nuw %struct.z3950_diaginfo_t, ptr %72, i32 0, i32 0
  store i32 %71, ptr %73, align 4
  br label %74

74:                                               ; preds = %70, %56
  call void @llvm.lifetime.end.p0(i64 8, ptr %18) #8
  call void @llvm.lifetime.end.p0(i64 4, ptr %17) #8
  call void @llvm.lifetime.end.p0(i64 8, ptr %16) #8
  call void @llvm.lifetime.end.p0(i64 4, ptr %15) #8
  call void @llvm.lifetime.end.p0(i64 8, ptr %14) #8
  br label %75

75:                                               ; preds = %74, %6
  %76 = load i32, ptr %9, align 4
  call void @llvm.lifetime.end.p0(i64 8, ptr %13) #8
  ret i32 %76
}